; Function Attrs: nounwind uwtable
define dso_local ptr @ExecGetInsertedCols(ptr noundef captures(none) %0, ptr noundef readonly captures(none) %1) local_unnamed_addr #0 {
  %3 = getelementptr inbounds nuw i8, ptr %0, i64 360
  %4 = load ptr, ptr %3, align 8
  %.not.i = icmp eq ptr %4, null
  %..i = select i1 %.not.i, ptr %0, ptr %4
  %.09.in.i = getelementptr inbounds nuw i8, ptr %..i, i64 4
  %.09.i = load i32, ptr %.09.in.i, align 4
  %.not13.i = icmp eq i32 %.09.i, 0
  br i1 %.not13.i, label %GetResultRTEPermissionInfo.exit.thread, label %GetResultRTEPermissionInfo.exit

GetResultRTEPermissionInfo.exit:                  ; preds = %2
  %5 = getelementptr i8, ptr %1, i64 24
  %.val.i = load ptr, ptr %5, align 8
  %6 = getelementptr i8, ptr %.val.i, i64 16
  %.val.val.i = load ptr, ptr %6, align 8
  %7 = add i32 %.09.i, -1
  %8 = sext i32 %7 to i64
  %9 = getelementptr inbounds %union.ListCell, ptr %.val.val.i, i64 %8
  %10 = load ptr, ptr %9, align 8
  %11 = getelementptr inbounds nuw i8, ptr %1, i64 56
  %12 = load ptr, ptr %11, align 8
  %13 = tail call ptr @getRTEPermissionInfo(ptr noundef %12, ptr noundef %10) #12
  %14 = icmp eq ptr %13, null
  br i1 %14, label %GetResultRTEPermissionInfo.exit.thread, label %15

15:                                               ; preds = %GetResultRTEPermissionInfo.exit
  %16 = load ptr, ptr %3, align 8
  %.not = icmp eq ptr %16, null
  br i1 %.not, label %.thread, label %17

17:                                               ; preds = %15
  %18 = getelementptr inbounds nuw i8, ptr %0, i64 352
  %19 = load i8, ptr %18, align 8, !range !8, !noundef !9
  %20 = trunc nuw i8 %19 to i1
  br i1 %20, label %ExecGetRootToChildMap.exit, label %21

21:                                               ; preds = %17
  %22 = getelementptr inbounds nuw i8, ptr %16, i64 8
  %23 = load ptr, ptr %22, align 8
  %24 = getelementptr inbounds nuw i8, ptr %23, i64 64
  %25 = load ptr, ptr %24, align 8
  %26 = getelementptr inbounds nuw i8, ptr %0, i64 8
  %27 = load ptr, ptr %26, align 8
  %28 = getelementptr inbounds nuw i8, ptr %27, i64 64
  %29 = load ptr, ptr %28, align 8
  %30 = getelementptr inbounds nuw i8, ptr %1, i64 192
  %31 = load ptr, ptr %30, align 8
  %32 = load ptr, ptr @CurrentMemoryContext, align 8
  store ptr %31, ptr @CurrentMemoryContext, align 8
  %33 = getelementptr inbounds nuw i8, ptr %27, i64 56
  %34 = load ptr, ptr %33, align 8
  %35 = getelementptr inbounds nuw i8, ptr %34, i64 127
  %36 = load i8, ptr %35, align 1, !range !8, !noundef !9
  %37 = trunc nuw i8 %36 to i1
  %38 = xor i1 %37, true
  %39 = tail call ptr @build_attrmap_by_name_if_req(ptr noundef %25, ptr noundef %29, i1 noundef zeroext %38) #12
  %.not.i15 = icmp eq ptr %39, null
  br i1 %.not.i15, label %43, label %40

40:                                               ; preds = %21
  %41 = tail call ptr @convert_tuples_by_name_attrmap(ptr noundef %25, ptr noundef %29, ptr noundef nonnull %39) #12
  %42 = getelementptr inbounds nuw i8, ptr %0, i64 344
  store ptr %41, ptr %42, align 8
  br label %43

43:                                               ; preds = %40, %21
  store ptr %32, ptr @CurrentMemoryContext, align 8
  store i8 1, ptr %18, align 8
  br label %ExecGetRootToChildMap.exit

ExecGetRootToChildMap.exit:                       ; preds = %17, %43
  %44 = getelementptr inbounds nuw i8, ptr %0, i64 344
  %45 = load ptr, ptr %44, align 8
  %.not14 = icmp eq ptr %45, null
  br i1 %.not14, label %.thread, label %46

46:                                               ; preds = %ExecGetRootToChildMap.exit
  %47 = getelementptr inbounds nuw i8, ptr %45, i64 16
  %48 = load ptr, ptr %47, align 8
  %49 = getelementptr inbounds nuw i8, ptr %13, i64 40
  %50 = load ptr, ptr %49, align 8
  %51 = tail call ptr @execute_attr_map_cols(ptr noundef %48, ptr noundef %50) #12
  br label %GetResultRTEPermissionInfo.exit.thread

.thread:                                          ; preds = %ExecGetRootToChildMap.exit, %15
  %52 = getelementptr inbounds nuw i8, ptr %13, i64 40
  %53 = load ptr, ptr %52, align 8
  br label %GetResultRTEPermissionInfo.exit.thread

GetResultRTEPermissionInfo.exit.thread:           ; preds = %2, %46, %GetResultRTEPermissionInfo.exit, %.thread
  %.0 = phi ptr [ %53, %.thread ], [ %51, %46 ], [ null, %GetResultRTEPermissionInfo.exit ], [ null, %2 ]
  ret ptr %.0
}